target datalayout = "e-m:e-p270:32:32-p271:32:32-p272:64:64-i64:64-i128:128-f80:128-n8:16:32:64-S128"
target triple = "x86_64-pc-linux-gnu"

; Function Attrs: inlinehint nounwind uwtable
define internal i32 @Dar_CutTruthSwapAdjacentVars(i32 noundef %0, i32 noundef %1) #3 {
  %3 = alloca i32, align 4
  %4 = alloca i32, align 4
  %5 = alloca i32, align 4
  store i32 %0, ptr %4, align 4, !tbaa !8
  store i32 %1, ptr %5, align 4, !tbaa !8
  %6 = load i32, ptr %5, align 4, !tbaa !8
  %7 = icmp eq i32 %6, 0
  br i1 %7, label %8, label %19

8:                                                ; preds = %2
  %9 = load i32, ptr %4, align 4, !tbaa !8
  %10 = and i32 %9, -1717986919
  %11 = load i32, ptr %4, align 4, !tbaa !8
  %12 = and i32 %11, 572662306
  %13 = shl i32 %12, 1
  %14 = or i32 %10, %13
  %15 = load i32, ptr %4, align 4, !tbaa !8
  %16 = and i32 %15, 1145324612
  %17 = lshr i32 %16, 1
  %18 = or i32 %14, %17
  store i32 %18, ptr %3, align 4
  br label %48

19:                                               ; preds = %2
  %20 = load i32, ptr %5, align 4, !tbaa !8
  %21 = icmp eq i32 %20, 1
  br i1 %21, label %22, label %33

22:                                               ; preds = %19
  %23 = load i32, ptr %4, align 4, !tbaa !8
  %24 = and i32 %23, -1010580541
  %25 = load i32, ptr %4, align 4, !tbaa !8
  %26 = and i32 %25, 202116108
  %27 = shl i32 %26, 2
  %28 = or i32 %24, %27
  %29 = load i32, ptr %4, align 4, !tbaa !8
  %30 = and i32 %29, 808464432
  %31 = lshr i32 %30, 2
  %32 = or i32 %28, %31
  store i32 %32, ptr %3, align 4
  br label %48

33:                                               ; preds = %19
  %34 = load i32, ptr %5, align 4, !tbaa !8
  %35 = icmp eq i32 %34, 2
  br i1 %35, label %36, label %47

36:                                               ; preds = %33
  %37 = load i32, ptr %4, align 4, !tbaa !8
  %38 = and i32 %37, -267390961
  %39 = load i32, ptr %4, align 4, !tbaa !8
  %40 = and i32 %39, 15728880
  %41 = shl i32 %40, 4
  %42 = or i32 %38, %41
  %43 = load i32, ptr %4, align 4, !tbaa !8
  %44 = and i32 %43, 251662080
  %45 = lshr i32 %44, 4
  %46 = or i32 %42, %45
  store i32 %46, ptr %3, align 4
  br label %48

47:                                               ; preds = %33
  store i32 0, ptr %3, align 4
  br label %48

48:                                               ; preds = %47, %36, %22, %8
  %49 = load i32, ptr %3, align 4
  ret i32 %49
}

; Function Attrs: inlinehint nounwind uwtable
define internal i32 @Dar_CutTruthSwapPolarity(i32 noundef %0, i32 noundef %1) #3 {
  %3 = alloca i32, align 4
  %4 = alloca i32, align 4
  %5 = alloca i32, align 4
  store i32 %0, ptr %4, align 4, !tbaa !8
  store i32 %1, ptr %5, align 4, !tbaa !8
  %6 = load i32, ptr %5, align 4, !tbaa !8
  %7 = icmp eq i32 %6, 0
  br i1 %7, label %8, label %16

8:                                                ; preds = %2
  %9 = load i32, ptr %4, align 4, !tbaa !8
  %10 = and i32 %9, 43690
  %11 = lshr i32 %10, 1
  %12 = load i32, ptr %4, align 4, !tbaa !8
  %13 = and i32 %12, 21845
  %14 = shl i32 %13, 1
  %15 = or i32 %11, %14
  store i32 %15, ptr %3, align 4
  br label %50

16:                                               ; preds = %2
  %17 = load i32, ptr %5, align 4, !tbaa !8
  %18 = icmp eq i32 %17, 1
  br i1 %18, label %19, label %27

19:                                               ; preds = %16
  %20 = load i32, ptr %4, align 4, !tbaa !8
  %21 = and i32 %20, 52428
  %22 = lshr i32 %21, 2
  %23 = load i32, ptr %4, align 4, !tbaa !8
  %24 = and i32 %23, 13107
  %25 = shl i32 %24, 2
  %26 = or i32 %22, %25
  store i32 %26, ptr %3, align 4
  br label %50

27:                                               ; preds = %16
  %28 = load i32, ptr %5, align 4, !tbaa !8
  %29 = icmp eq i32 %28, 2
  br i1 %29, label %30, label %38

30:                                               ; preds = %27
  %31 = load i32, ptr %4, align 4, !tbaa !8
  %32 = and i32 %31, 61680
  %33 = lshr i32 %32, 4
  %34 = load i32, ptr %4, align 4, !tbaa !8
  %35 = and i32 %34, 3855
  %36 = shl i32 %35, 4
  %37 = or i32 %33, %36
  store i32 %37, ptr %3, align 4
  br label %50

38:                                               ; preds = %27
  %39 = load i32, ptr %5, align 4, !tbaa !8
  %40 = icmp eq i32 %39, 3
  br i1 %40, label %41, label %49

41:                                               ; preds = %38
  %42 = load i32, ptr %4, align 4, !tbaa !8
  %43 = and i32 %42, 65280
  %44 = lshr i32 %43, 8
  %45 = load i32, ptr %4, align 4, !tbaa !8
  %46 = and i32 %45, 255
  %47 = shl i32 %46, 8
  %48 = or i32 %44, %47
  store i32 %48, ptr %3, align 4
  br label %50

49:                                               ; preds = %38
  store i32 0, ptr %3, align 4
  br label %50

50:                                               ; preds = %49, %41, %30, %19, %8
  %51 = load i32, ptr %3, align 4
  ret i32 %51
}

; Function Attrs: inlinehint nounwind uwtable
define internal i32 @Abc_LitNot(i32 noundef %0) #3 {
  %2 = alloca i32, align 4
  store i32 %0, ptr %2, align 4, !tbaa !8
  %3 = load i32, ptr %2, align 4, !tbaa !8
  %4 = xor i32 %3, 1
  ret i32 %4
}

; Function Attrs: inlinehint nounwind uwtable
define internal i32 @Abc_LitIsCompl(i32 noundef %0) #3 {
  %2 = alloca i32, align 4
  store i32 %0, ptr %2, align 4, !tbaa !8
  %3 = load i32, ptr %2, align 4, !tbaa !8
  %4 = and i32 %3, 1
  ret i32 %4
}

; Function Attrs: nounwind uwtable
define i32 @Dar_CutSortVars(i32 noundef %0, ptr noundef %1) #0 {
  %3 = alloca i32, align 4
  %4 = alloca ptr, align 8
  %5 = alloca i32, align 4
  %6 = alloca i32, align 4
  %7 = alloca i32, align 4
  %8 = alloca i32, align 4
  store i32 %0, ptr %3, align 4, !tbaa !8
  store ptr %1, ptr %4, align 8, !tbaa !20
  call void @llvm.lifetime.start.p0(i64 4, ptr %5) #8
  call void @llvm.lifetime.start.p0(i64 4, ptr %6) #8
  call void @llvm.lifetime.start.p0(i64 4, ptr %7) #8
  call void @llvm.lifetime.start.p0(i64 4, ptr %8) #8
  store i32 0, ptr %8, align 4, !tbaa !8
  store i32 0, ptr %5, align 4, !tbaa !8
  br label %9

9:                                                ; preds = %48, %2
  %10 = load i32, ptr %5, align 4, !tbaa !8
  %11 = icmp slt i32 %10, 4
  br i1 %11, label %12, label %51

12:                                               ; preds = %9
  %13 = load ptr, ptr %4, align 8, !tbaa !20
  %14 = load i32, ptr %5, align 4, !tbaa !8
  %15 = sext i32 %14 to i64
  %16 = getelementptr inbounds i32, ptr %13, i64 %15
  %17 = load i32, ptr %16, align 4, !tbaa !8
  %18 = icmp eq i32 %17, -1
  br i1 %18, label %19, label %24

19:                                               ; preds = %12
  %20 = load ptr, ptr %4, align 8, !tbaa !20
  %21 = load i32, ptr %5, align 4, !tbaa !8
  %22 = sext i32 %21 to i64
  %23 = getelementptr inbounds i32, ptr %20, i64 %22
  store i32 1073741823, ptr %23, align 4, !tbaa !8
  br label %47

24:                                               ; preds = %12
  %25 = load ptr, ptr %4, align 8, !tbaa !20
  %26 = load i32, ptr %5, align 4, !tbaa !8
  %27 = sext i32 %26 to i64
  %28 = getelementptr inbounds i32, ptr %25, i64 %27
  %29 = load i32, ptr %28, align 4, !tbaa !8
  %30 = call i32 @Abc_LitIsCompl(i32 noundef %29)
  %31 = icmp ne i32 %30, 0
  br i1 %31, label %32, label %46

32:                                               ; preds = %24
  %33 = load ptr, ptr %4, align 8, !tbaa !20
  %34 = load i32, ptr %5, align 4, !tbaa !8
  %35 = sext i32 %34 to i64
  %36 = getelementptr inbounds i32, ptr %33, i64 %35
  %37 = load i32, ptr %36, align 4, !tbaa !8
  %38 = call i32 @Abc_LitNot(i32 noundef %37)
  %39 = load ptr, ptr %4, align 8, !tbaa !20
  %40 = load i32, ptr %5, align 4, !tbaa !8
  %41 = sext i32 %40 to i64
  %42 = getelementptr inbounds i32, ptr %39, i64 %41
  store i32 %38, ptr %42, align 4, !tbaa !8
  %43 = load i32, ptr %3, align 4, !tbaa !8
  %44 = load i32, ptr %5, align 4, !tbaa !8
  %45 = call i32 @Dar_CutTruthSwapPolarity(i32 noundef %43, i32 noundef %44)
  store i32 %45, ptr %3, align 4, !tbaa !8
  br label %46

46:                                               ; preds = %32, %24
  br label %47

47:                                               ; preds = %46, %19
  br label %48

48:                                               ; preds = %47
  %49 = load i32, ptr %5, align 4, !tbaa !8
  %50 = add nsw i32 %49, 1
  store i32 %50, ptr %5, align 4, !tbaa !8
  br label %9, !llvm.loop !22

51:                                               ; preds = %9
  br label %52

52:                                               ; preds = %101, %51
  store i32 0, ptr %7, align 4, !tbaa !8
  store i32 0, ptr %5, align 4, !tbaa !8
  br label %53

53:                                               ; preds = %97, %52
  %54 = load i32, ptr %5, align 4, !tbaa !8
  %55 = icmp slt i32 %54, 3
  br i1 %55, label %56, label %100

56:                                               ; preds = %53
  %57 = load ptr, ptr %4, align 8, !tbaa !20
  %58 = load i32, ptr %5, align 4, !tbaa !8
  %59 = sext i32 %58 to i64
  %60 = getelementptr inbounds i32, ptr %57, i64 %59
  %61 = load i32, ptr %60, align 4, !tbaa !8
  %62 = load ptr, ptr %4, align 8, !tbaa !20
  %63 = load i32, ptr %5, align 4, !tbaa !8
  %64 = add nsw i32 %63, 1
  %65 = sext i32 %64 to i64
  %66 = getelementptr inbounds i32, ptr %62, i64 %65
  %67 = load i32, ptr %66, align 4, !tbaa !8
  %68 = icmp sle i32 %61, %67
  br i1 %68, label %69, label %70

69:                                               ; preds = %56
  br label %97

70:                                               ; preds = %56
  %71 = load i32, ptr %8, align 4, !tbaa !8
  %72 = add nsw i32 %71, 1
  store i32 %72, ptr %8, align 4, !tbaa !8
  store i32 1, ptr %7, align 4, !tbaa !8
  %73 = load ptr, ptr %4, align 8, !tbaa !20
  %74 = load i32, ptr %5, align 4, !tbaa !8
  %75 = sext i32 %74 to i64
  %76 = getelementptr inbounds i32, ptr %73, i64 %75
  %77 = load i32, ptr %76, align 4, !tbaa !8
  store i32 %77, ptr %6, align 4, !tbaa !8
  %78 = load ptr, ptr %4, align 8, !tbaa !20
  %79 = load i32, ptr %5, align 4, !tbaa !8
  %80 = add nsw i32 %79, 1
  %81 = sext i32 %80 to i64
  %82 = getelementptr inbounds i32, ptr %78, i64 %81
  %83 = load i32, ptr %82, align 4, !tbaa !8
  %84 = load ptr, ptr %4, align 8, !tbaa !20
  %85 = load i32, ptr %5, align 4, !tbaa !8
  %86 = sext i32 %85 to i64
  %87 = getelementptr inbounds i32, ptr %84, i64 %86
  store i32 %83, ptr %87, align 4, !tbaa !8
  %88 = load i32, ptr %6, align 4, !tbaa !8
  %89 = load ptr, ptr %4, align 8, !tbaa !20
  %90 = load i32, ptr %5, align 4, !tbaa !8
  %91 = add nsw i32 %90, 1
  %92 = sext i32 %91 to i64
  %93 = getelementptr inbounds i32, ptr %89, i64 %92
  store i32 %88, ptr %93, align 4, !tbaa !8
  %94 = load i32, ptr %3, align 4, !tbaa !8
  %95 = load i32, ptr %5, align 4, !tbaa !8
  %96 = call i32 @Dar_CutTruthSwapAdjacentVars(i32 noundef %94, i32 noundef %95)
  store i32 %96, ptr %3, align 4, !tbaa !8
  br label %97

97:                                               ; preds = %70, %69
  %98 = load i32, ptr %5, align 4, !tbaa !8
  %99 = add nsw i32 %98, 1
  store i32 %99, ptr %5, align 4, !tbaa !8
  br label %53, !llvm.loop !23

100:                                              ; preds = %53
  br label %101

101:                                              ; preds = %100
  %102 = load i32, ptr %7, align 4, !tbaa !8
  %103 = icmp ne i32 %102, 0
  br i1 %103, label %52, label %104, !llvm.loop !24

104:                                              ; preds = %101
  store i32 0, ptr %5, align 4, !tbaa !8
  br label %105

105:                                              ; preds = %121, %104
  %106 = load i32, ptr %5, align 4, !tbaa !8
  %107 = icmp slt i32 %106, 4
  br i1 %107, label %108, label %124

108:                                              ; preds = %105
  %109 = load ptr, ptr %4, align 8, !tbaa !20
  %110 = load i32, ptr %5, align 4, !tbaa !8
  %111 = sext i32 %110 to i64
  %112 = getelementptr inbounds i32, ptr %109, i64 %111
  %113 = load i32, ptr %112, align 4, !tbaa !8
  %114 = icmp eq i32 %113, 1073741823
  br i1 %114, label %115, label %120

115:                                              ; preds = %108
  %116 = load ptr, ptr %4, align 8, !tbaa !20
  %117 = load i32, ptr %5, align 4, !tbaa !8
  %118 = sext i32 %117 to i64
  %119 = getelementptr inbounds i32, ptr %116, i64 %118
  store i32 -1, ptr %119, align 4, !tbaa !8
  br label %120

120:                                              ; preds = %115, %108
  br label %121

121:                                              ; preds = %120
  %122 = load i32, ptr %5, align 4, !tbaa !8
  %123 = add nsw i32 %122, 1
  store i32 %123, ptr %5, align 4, !tbaa !8
  br label %105, !llvm.loop !25

124:                                              ; preds = %105
  %125 = load i32, ptr %3, align 4, !tbaa !8
  call void @llvm.lifetime.end.p0(i64 4, ptr %8) #8
  call void @llvm.lifetime.end.p0(i64 4, ptr %7) #8
  call void @llvm.lifetime.end.p0(i64 4, ptr %6) #8
  call void @llvm.lifetime.end.p0(i64 4, ptr %5) #8
  ret i32 %125
}